target datalayout = "e-m:e-p270:32:32-p271:32:32-p272:64:64-i64:64-i128:128-f80:128-n8:16:32:64-S128"
target triple = "x86_64-pc-linux-gnu"

%struct.Fraig_ManStruct_t_ = type { ptr, ptr, ptr, ptr, ptr, ptr, ptr, ptr, ptr, i32, i32, i32, i32, i32, i32, i32, i32, i32, i32, i32, i32, i64, i32, i32, i32, i32, i32, ptr, ptr, ptr, ptr, ptr, i32, ptr, ptr, ptr, ptr, ptr, ptr, i32, ptr, ptr, ptr, ptr, i32, i32, i32, i32, i32, i32, i32, i32, i32, i32, i32, i32, i32, i32, i32, i32, i32, i32, i32, i64, i64, i64, i64, i64, i64, i64, i64, i64, i64, i64, i64 }
%struct.Fraig_NodeVecStruct_t_ = type { i32, i32, ptr }
%struct.Fraig_NodeStruct_t_ = type { i32, i32, i32, i32, i32, i32, i32, ptr, ptr, ptr, ptr, ptr, ptr, ptr, ptr, i32, i32, ptr, ptr, ptr, ptr, ptr, ptr, ptr }

@.str.5 = private unnamed_addr constant [19 x i8] c"%3d : PI          \00", align 1
@stdout = external global ptr, align 8
@.str.6 = private unnamed_addr constant [4 x i8] c"   \00", align 1
@.str.7 = private unnamed_addr constant [6 x i8] c"  %d\0A\00", align 1
@.str.8 = private unnamed_addr constant [21 x i8] c"%3d : %c%3d %c%3d   \00", align 1
@.str.9 = private unnamed_addr constant [3 x i8] c"%c\00", align 1

; Function Attrs: nounwind uwtable
define void @Fraig_PrintBinary(ptr noundef %0, ptr noundef %1, i32 noundef %2) #0 {
  %4 = alloca ptr, align 8
  %5 = alloca ptr, align 8
  %6 = alloca i32, align 4
  %7 = alloca i32, align 4
  %8 = alloca i32, align 4
  %9 = alloca i32, align 4
  %10 = alloca i32, align 4
  store ptr %0, ptr %4, align 8
  store ptr %1, ptr %5, align 8
  store i32 %2, ptr %6, align 4
  %11 = load i32, ptr %6, align 4
  %12 = sext i32 %11 to i64
  %13 = urem i64 %12, 32
  %14 = trunc i64 %13 to i32
  store i32 %14, ptr %7, align 4
  %15 = load i32, ptr %6, align 4
  %16 = sext i32 %15 to i64
  %17 = udiv i64 %16, 32
  %18 = load i32, ptr %7, align 4
  %19 = icmp sgt i32 %18, 0
  %20 = zext i1 %19 to i32
  %21 = sext i32 %20 to i64
  %22 = add i64 %17, %21
  %23 = trunc i64 %22 to i32
  store i32 %23, ptr %8, align 4
  %24 = load i32, ptr %8, align 4
  %25 = sub nsw i32 %24, 1
  store i32 %25, ptr %9, align 4
  br label %26

26:                                               ; preds = %64, %3
  %27 = load i32, ptr %9, align 4
  %28 = icmp sge i32 %27, 0
  br i1 %28, label %29, label %67

29:                                               ; preds = %26
  %30 = load i32, ptr %9, align 4
  %31 = load i32, ptr %8, align 4
  %32 = sub nsw i32 %31, 1
  %33 = icmp eq i32 %30, %32
  br i1 %33, label %34, label %40

34:                                               ; preds = %29
  %35 = load i32, ptr %7, align 4
  %36 = icmp ne i32 %35, 0
  br i1 %36, label %37, label %40

37:                                               ; preds = %34
  %38 = load i32, ptr %7, align 4
  %39 = sub nsw i32 %38, 1
  br label %41

40:                                               ; preds = %34, %29
  br label %41

41:                                               ; preds = %40, %37
  %42 = phi i32 [ %39, %37 ], [ 31, %40 ]
  store i32 %42, ptr %10, align 4
  br label %43

43:                                               ; preds = %60, %41
  %44 = load i32, ptr %10, align 4
  %45 = icmp sge i32 %44, 0
  br i1 %45, label %46, label %63

46:                                               ; preds = %43
  %47 = load ptr, ptr %4, align 8
  %48 = load ptr, ptr %5, align 8
  %49 = load i32, ptr %9, align 4
  %50 = sext i32 %49 to i64
  %51 = getelementptr inbounds i32, ptr %48, i64 %50
  %52 = load i32, ptr %51, align 4
  %53 = load i32, ptr %10, align 4
  %54 = shl i32 1, %53
  %55 = and i32 %52, %54
  %56 = icmp ugt i32 %55, 0
  %57 = zext i1 %56 to i32
  %58 = add nsw i32 48, %57
  %59 = call i32 (ptr, ptr, ...) @fprintf(ptr noundef %47, ptr noundef @.str.9, i32 noundef %58) #3
  br label %60

60:                                               ; preds = %46
  %61 = load i32, ptr %10, align 4
  %62 = add nsw i32 %61, -1
  store i32 %62, ptr %10, align 4
  br label %43, !llvm.loop !12

63:                                               ; preds = %43
  br label %64

64:                                               ; preds = %63
  %65 = load i32, ptr %9, align 4
  %66 = add nsw i32 %65, -1
  store i32 %66, ptr %9, align 4
  br label %26, !llvm.loop !13

67:                                               ; preds = %26
  ret void
}

; Function Attrs: nounwind uwtable
define ptr @Fraig_DfsOne(ptr noundef %0, ptr noundef %1, i32 noundef %2) #0 {
  %4 = alloca ptr, align 8
  %5 = alloca ptr, align 8
  %6 = alloca i32, align 4
  %7 = alloca ptr, align 8
  store ptr %0, ptr %4, align 8
  store ptr %1, ptr %5, align 8
  store i32 %2, ptr %6, align 4
  %8 = load ptr, ptr %4, align 8
  %9 = getelementptr inbounds %struct.Fraig_ManStruct_t_, ptr %8, i32 0, i32 22
  %10 = load i32, ptr %9, align 8
  %11 = add nsw i32 %10, 1
  store i32 %11, ptr %9, align 8
  %12 = call ptr @Fraig_NodeVecAlloc(i32 noundef 100)
  store ptr %12, ptr %7, align 8
  %13 = load ptr, ptr %4, align 8
  %14 = load ptr, ptr %5, align 8
  %15 = ptrtoint ptr %14 to i64
  %16 = and i64 %15, -2
  %17 = inttoptr i64 %16 to ptr
  %18 = load ptr, ptr %7, align 8
  %19 = load i32, ptr %6, align 4
  call void @Fraig_Dfs_rec(ptr noundef %13, ptr noundef %17, ptr noundef %18, i32 noundef %19)
  %20 = load ptr, ptr %7, align 8
  ret ptr %20
}

; Function Attrs: nounwind uwtable
define void @Fraig_PrintNode(ptr noundef %0, ptr noundef %1) #0 {
  %3 = alloca ptr, align 8
  %4 = alloca ptr, align 8
  %5 = alloca ptr, align 8
  %6 = alloca ptr, align 8
  %7 = alloca i32, align 4
  %8 = alloca i32, align 4
  %9 = alloca i32, align 4
  store ptr %0, ptr %3, align 8
  store ptr %1, ptr %4, align 8
  %10 = load ptr, ptr %3, align 8
  %11 = load ptr, ptr %4, align 8
  %12 = call ptr @Fraig_DfsOne(ptr noundef %10, ptr noundef %11, i32 noundef 0)
  store ptr %12, ptr %5, align 8
  store i32 0, ptr %9, align 4
  br label %13

13:                                               ; preds = %98, %2
  %14 = load i32, ptr %9, align 4
  %15 = load ptr, ptr %5, align 8
  %16 = getelementptr inbounds %struct.Fraig_NodeVecStruct_t_, ptr %15, i32 0, i32 1
  %17 = load i32, ptr %16, align 4
  %18 = icmp slt i32 %14, %17
  br i1 %18, label %19, label %101

19:                                               ; preds = %13
  %20 = load ptr, ptr %5, align 8
  %21 = getelementptr inbounds %struct.Fraig_NodeVecStruct_t_, ptr %20, i32 0, i32 2
  %22 = load ptr, ptr %21, align 8
  %23 = load i32, ptr %9, align 4
  %24 = sext i32 %23 to i64
  %25 = getelementptr inbounds ptr, ptr %22, i64 %24
  %26 = load ptr, ptr %25, align 8
  store ptr %26, ptr %6, align 8
  %27 = load ptr, ptr %6, align 8
  %28 = call i32 @Fraig_NodeIsVar(ptr noundef %27)
  %29 = icmp ne i32 %28, 0
  br i1 %29, label %30, label %47

30:                                               ; preds = %19
  %31 = load ptr, ptr %6, align 8
  %32 = getelementptr inbounds %struct.Fraig_NodeStruct_t_, ptr %31, i32 0, i32 0
  %33 = load i32, ptr %32, align 8
  %34 = call i32 (ptr, ...) @printf(ptr noundef @.str.5, i32 noundef %33)
  %35 = load ptr, ptr @stdout, align 8
  %36 = load ptr, ptr %6, align 8
  %37 = getelementptr inbounds %struct.Fraig_NodeStruct_t_, ptr %36, i32 0, i32 17
  call void @Fraig_PrintBinary(ptr noundef %35, ptr noundef %37, i32 noundef 20)
  %38 = call i32 (ptr, ...) @printf(ptr noundef @.str.6)
  %39 = load ptr, ptr @stdout, align 8
  %40 = load ptr, ptr %6, align 8
  %41 = getelementptr inbounds %struct.Fraig_NodeStruct_t_, ptr %40, i32 0, i32 18
  call void @Fraig_PrintBinary(ptr noundef %39, ptr noundef %41, i32 noundef 20)
  %42 = load ptr, ptr %6, align 8
  %43 = getelementptr inbounds %struct.Fraig_NodeStruct_t_, ptr %42, i32 0, i32 6
  %44 = load i32, ptr %43, align 8
  %45 = and i32 %44, 1
  %46 = call i32 (ptr, ...) @printf(ptr noundef @.str.7, i32 noundef %45)
  br label %98

47:                                               ; preds = %19
  %48 = load ptr, ptr %6, align 8
  %49 = getelementptr inbounds %struct.Fraig_NodeStruct_t_, ptr %48, i32 0, i32 7
  %50 = load ptr, ptr %49, align 8
  %51 = ptrtoint ptr %50 to i64
  %52 = and i64 %51, 1
  %53 = trunc i64 %52 to i32
  store i32 %53, ptr %7, align 4
  %54 = load ptr, ptr %6, align 8
  %55 = getelementptr inbounds %struct.Fraig_NodeStruct_t_, ptr %54, i32 0, i32 8
  %56 = load ptr, ptr %55, align 8
  %57 = ptrtoint ptr %56 to i64
  %58 = and i64 %57, 1
  %59 = trunc i64 %58 to i32
  store i32 %59, ptr %8, align 4
  %60 = load ptr, ptr %6, align 8
  %61 = getelementptr inbounds %struct.Fraig_NodeStruct_t_, ptr %60, i32 0, i32 0
  %62 = load i32, ptr %61, align 8
  %63 = load i32, ptr %7, align 4
  %64 = icmp ne i32 %63, 0
  %65 = select i1 %64, i32 45, i32 43
  %66 = load ptr, ptr %6, align 8
  %67 = getelementptr inbounds %struct.Fraig_NodeStruct_t_, ptr %66, i32 0, i32 7
  %68 = load ptr, ptr %67, align 8
  %69 = ptrtoint ptr %68 to i64
  %70 = and i64 %69, -2
  %71 = inttoptr i64 %70 to ptr
  %72 = getelementptr inbounds %struct.Fraig_NodeStruct_t_, ptr %71, i32 0, i32 0
  %73 = load i32, ptr %72, align 8
  %74 = load i32, ptr %8, align 4
  %75 = icmp ne i32 %74, 0
  %76 = select i1 %75, i32 45, i32 43
  %77 = load ptr, ptr %6, align 8
  %78 = getelementptr inbounds %struct.Fraig_NodeStruct_t_, ptr %77, i32 0, i32 8
  %79 = load ptr, ptr %78, align 8
  %80 = ptrtoint ptr %79 to i64
  %81 = and i64 %80, -2
  %82 = inttoptr i64 %81 to ptr
  %83 = getelementptr inbounds %struct.Fraig_NodeStruct_t_, ptr %82, i32 0, i32 0
  %84 = load i32, ptr %83, align 8
  %85 = call i32 (ptr, ...) @printf(ptr noundef @.str.8, i32 noundef %62, i32 noundef %65, i32 noundef %73, i32 noundef %76, i32 noundef %84)
  %86 = load ptr, ptr @stdout, align 8
  %87 = load ptr, ptr %6, align 8
  %88 = getelementptr inbounds %struct.Fraig_NodeStruct_t_, ptr %87, i32 0, i32 17
  call void @Fraig_PrintBinary(ptr noundef %86, ptr noundef %88, i32 noundef 20)
  %89 = call i32 (ptr, ...) @printf(ptr noundef @.str.6)
  %90 = load ptr, ptr @stdout, align 8
  %91 = load ptr, ptr %6, align 8
  %92 = getelementptr inbounds %struct.Fraig_NodeStruct_t_, ptr %91, i32 0, i32 18
  call void @Fraig_PrintBinary(ptr noundef %90, ptr noundef %92, i32 noundef 20)
  %93 = load ptr, ptr %6, align 8
  %94 = getelementptr inbounds %struct.Fraig_NodeStruct_t_, ptr %93, i32 0, i32 6
  %95 = load i32, ptr %94, align 8
  %96 = and i32 %95, 1
  %97 = call i32 (ptr, ...) @printf(ptr noundef @.str.7, i32 noundef %96)
  br label %98

98:                                               ; preds = %47, %30
  %99 = load i32, ptr %9, align 4
  %100 = add nsw i32 %99, 1
  store i32 %100, ptr %9, align 4
  br label %13, !llvm.loop !11

101:                                              ; preds = %13
  %102 = load ptr, ptr %5, align 8
  call void @Fraig_NodeVecFree(ptr noundef %102)
  ret void
}