; Function Attrs: nounwind uwtable
define void @Fraig_PrintNode(ptr noundef captures(none) %0, ptr noundef %1) local_unnamed_addr #0 {
  %3 = getelementptr inbounds nuw i8, ptr %0, i64 128
  %4 = load i32, ptr %3, align 8
  %5 = add nsw i32 %4, 1
  store i32 %5, ptr %3, align 8
  %6 = tail call ptr @Fraig_NodeVecAlloc(i32 noundef 100) #15
  %7 = ptrtoint ptr %1 to i64
  %8 = and i64 %7, -2
  %9 = inttoptr i64 %8 to ptr
  %.val.i = load i32, ptr %3, align 8
  tail call fastcc void @Fraig_Dfs_rec(i32 %.val.i, ptr noundef %9, ptr noundef %6, i32 noundef 0)
  %10 = getelementptr inbounds nuw i8, ptr %6, i64 4
  %11 = load i32, ptr %10, align 4
  %12 = icmp sgt i32 %11, 0
  br i1 %12, label %.lr.ph, label %._crit_edge

.lr.ph:                                           ; preds = %2
  %13 = getelementptr inbounds nuw i8, ptr %6, i64 8
  br label %14

14:                                               ; preds = %.lr.ph, %select.unfold._crit_edge.i30
  %indvars.iv = phi i64 [ 0, %.lr.ph ], [ %indvars.iv.next, %select.unfold._crit_edge.i30 ]
  %15 = load ptr, ptr %13, align 8
  %16 = getelementptr inbounds nuw ptr, ptr %15, i64 %indvars.iv
  %17 = load ptr, ptr %16, align 8
  %18 = tail call i32 @Fraig_NodeIsVar(ptr noundef %17) #15
  %.not = icmp eq i32 %18, 0
  br i1 %.not, label %.lr.ph19.split.i33, label %.lr.ph19.split.i

.lr.ph19.split.i:                                 ; preds = %14
  %19 = load i32, ptr %17, align 8
  %20 = tail call i32 (ptr, ...) @printf(ptr noundef nonnull dereferenceable(1) @.str.5, i32 noundef %19)
  %21 = load ptr, ptr @stdout, align 8
  %22 = getelementptr inbounds nuw i8, ptr %17, i64 104
  br label %select.unfold.i

select.unfold.i:                                  ; preds = %select.unfold.i, %.lr.ph19.split.i
  %.017.i = phi i32 [ %27, %select.unfold.i ], [ 19, %.lr.ph19.split.i ]
  %23 = load i32, ptr %22, align 4
  %24 = lshr i32 %23, %.017.i
  %25 = and i32 %24, 1
  %26 = or disjoint i32 %25, 48
  %fputc.i = tail call i32 @fputc(i32 %26, ptr %21)
  %27 = add nsw i32 %.017.i, -1
  %.not51 = icmp eq i32 %.017.i, 0
  br i1 %.not51, label %select.unfold._crit_edge.i, label %select.unfold.i, !llvm.loop !11

select.unfold._crit_edge.i:                       ; preds = %select.unfold.i
  %28 = tail call i32 (ptr, ...) @printf(ptr noundef nonnull dereferenceable(1) @.str.6)
  %29 = load ptr, ptr @stdout, align 8
  %30 = getelementptr inbounds nuw i8, ptr %17, i64 112
  br label %select.unfold.i27

select.unfold.i27:                                ; preds = %select.unfold.i27, %select.unfold._crit_edge.i
  %.017.i28 = phi i32 [ %35, %select.unfold.i27 ], [ 19, %select.unfold._crit_edge.i ]
  %31 = load i32, ptr %30, align 4
  %32 = lshr i32 %31, %.017.i28
  %33 = and i32 %32, 1
  %34 = or disjoint i32 %33, 48
  %fputc.i29 = tail call i32 @fputc(i32 %34, ptr %29)
  %35 = add nsw i32 %.017.i28, -1
  %.not52 = icmp eq i32 %.017.i28, 0
  br i1 %.not52, label %select.unfold._crit_edge.i30, label %select.unfold.i27, !llvm.loop !11

.lr.ph19.split.i33:                               ; preds = %14
  %36 = getelementptr inbounds nuw i8, ptr %17, i64 32
  %37 = load ptr, ptr %36, align 8
  %38 = ptrtoint ptr %37 to i64
  %39 = getelementptr inbounds nuw i8, ptr %17, i64 40
  %40 = load ptr, ptr %39, align 8
  %41 = ptrtoint ptr %40 to i64
  %42 = load i32, ptr %17, align 8
  %43 = and i64 %38, 1
  %.not22 = icmp eq i64 %43, 0
  %44 = select i1 %.not22, i32 43, i32 45
  %45 = and i64 %38, -2
  %46 = inttoptr i64 %45 to ptr
  %47 = load i32, ptr %46, align 8
  %48 = and i64 %41, 1
  %.not23 = icmp eq i64 %48, 0
  %49 = select i1 %.not23, i32 43, i32 45
  %50 = and i64 %41, -2
  %51 = inttoptr i64 %50 to ptr
  %52 = load i32, ptr %51, align 8
  %53 = tail call i32 (ptr, ...) @printf(ptr noundef nonnull dereferenceable(1) @.str.8, i32 noundef %42, i32 noundef %44, i32 noundef %47, i32 noundef %49, i32 noundef %52)
  %54 = load ptr, ptr @stdout, align 8
  %55 = getelementptr inbounds nuw i8, ptr %17, i64 104
  br label %select.unfold.i36

select.unfold.i36:                                ; preds = %select.unfold.i36, %.lr.ph19.split.i33
  %.017.i37 = phi i32 [ %60, %select.unfold.i36 ], [ 19, %.lr.ph19.split.i33 ]
  %56 = load i32, ptr %55, align 4
  %57 = lshr i32 %56, %.017.i37
  %58 = and i32 %57, 1
  %59 = or disjoint i32 %58, 48
  %fputc.i38 = tail call i32 @fputc(i32 %59, ptr %54)
  %60 = add nsw i32 %.017.i37, -1
  %.not53 = icmp eq i32 %.017.i37, 0
  br i1 %.not53, label %select.unfold._crit_edge.i39, label %select.unfold.i36, !llvm.loop !11

select.unfold._crit_edge.i39:                     ; preds = %select.unfold.i36
  %61 = tail call i32 (ptr, ...) @printf(ptr noundef nonnull dereferenceable(1) @.str.6)
  %62 = load ptr, ptr @stdout, align 8
  %63 = getelementptr inbounds nuw i8, ptr %17, i64 112
  br label %select.unfold.i45

select.unfold.i45:                                ; preds = %select.unfold.i45, %select.unfold._crit_edge.i39
  %.017.i46 = phi i32 [ %68, %select.unfold.i45 ], [ 19, %select.unfold._crit_edge.i39 ]
  %64 = load i32, ptr %63, align 4
  %65 = lshr i32 %64, %.017.i46
  %66 = and i32 %65, 1
  %67 = or disjoint i32 %66, 48
  %fputc.i47 = tail call i32 @fputc(i32 %67, ptr %62)
  %68 = add nsw i32 %.017.i46, -1
  %.not54 = icmp eq i32 %.017.i46, 0
  br i1 %.not54, label %select.unfold._crit_edge.i30, label %select.unfold.i45, !llvm.loop !11

select.unfold._crit_edge.i30:                     ; preds = %select.unfold.i27, %select.unfold.i45
  %69 = getelementptr inbounds nuw i8, ptr %17, i64 24
  %70 = load i32, ptr %69, align 8
  %71 = and i32 %70, 1
  %72 = tail call i32 (ptr, ...) @printf(ptr noundef nonnull dereferenceable(1) @.str.7, i32 noundef %71)
  %indvars.iv.next = add nuw nsw i64 %indvars.iv, 1
  %73 = load i32, ptr %10, align 4
  %74 = sext i32 %73 to i64
  %75 = icmp slt i64 %indvars.iv.next, %74
  br i1 %75, label %14, label %._crit_edge, !llvm.loop !12

._crit_edge:                                      ; preds = %select.unfold._crit_edge.i30, %2
  tail call void @Fraig_NodeVecFree(ptr noundef nonnull %6) #15
  ret void
}